target datalayout = "e-m:e-p270:32:32-p271:32:32-p272:64:64-i64:64-f80:128-n8:16:32:64-S128"
target triple = "x86_64-pc-linux-gnu"

@.str = private unnamed_addr constant [6 x i8] c"%s %s\00", align 1
@.str.1 = private unnamed_addr constant [4 x i8] c"%s\0A\00", align 1

; Function Attrs: noinline nounwind uwtable
define dso_local void @function(i8* %0, i8* %1) #0 {
  %3 = alloca i8*, align 8
  %4 = alloca i8*, align 8
  %5 = alloca i32, align 4
  %6 = alloca i32, align 4
  %7 = alloca i32, align 4
  store i8* %0, i8** %3, align 8
  store i8* %1, i8** %4, align 8
  store i32 1, i32* %5, align 4
  %8 = load i8*, i8** %3, align 8
  %9 = getelementptr inbounds i8, i8* %8, i64 0
  %10 = load i8, i8* %9, align 1
  %11 = sext i8 %10 to i32
  store i32 %11, i32* %6, align 4
  store i32 0, i32* %7, align 4
  br label %12

12:                                               ; preds = %38, %2
  %13 = load i8*, i8** %3, align 8
  %14 = load i32, i32* %5, align 4
  %15 = sext i32 %14 to i64
  %16 = getelementptr inbounds i8, i8* %13, i64 %15
  %17 = load i8, i8* %16, align 1
  %18 = sext i8 %17 to i32
  %19 = icmp ne i32 %18, 0
  br i1 %19, label %20, label %41

20:                                               ; preds = %12
  %21 = load i8*, i8** %3, align 8
  %22 = load i32, i32* %5, align 4
  %23 = sext i32 %22 to i64
  %24 = getelementptr inbounds i8, i8* %21, i64 %23
  %25 = load i8, i8* %24, align 1
  %26 = sext i8 %25 to i32
  %27 = load i32, i32* %6, align 4
  %28 = icmp sgt i32 %26, %27
  br i1 %28, label %29, label %37

29:                                               ; preds = %20
  %30 = load i8*, i8** %3, align 8
  %31 = load i32, i32* %5, align 4
  %32 = sext i32 %31 to i64
  %33 = getelementptr inbounds i8, i8* %30, i64 %32
  %34 = load i8, i8* %33, align 1
  %35 = sext i8 %34 to i32
  store i32 %35, i32* %6, align 4
  %36 = load i32, i32* %5, align 4
  store i32 %36, i32* %7, align 4
  br label %37

37:                                               ; preds = %29, %20
  br label %38

38:                                               ; preds = %37
  %39 = load i32, i32* %5, align 4
  %40 = add nsw i32 %39, 1
  store i32 %40, i32* %5, align 4
  br label %12

41:                                               ; preds = %12
  %42 = load i8*, i8** %3, align 8
  %43 = load i32, i32* %5, align 4
  %44 = add nsw i32 %43, 3
  %45 = sext i32 %44 to i64
  %46 = getelementptr inbounds i8, i8* %42, i64 %45
  store i8 0, i8* %46, align 1
  %47 = load i32, i32* %5, align 4
  %48 = sub nsw i32 %47, 1
  store i32 %48, i32* %5, align 4
  br label %49

49:                                               ; preds = %64, %41
  %50 = load i32, i32* %5, align 4
  %51 = load i32, i32* %7, align 4
  %52 = icmp sgt i32 %50, %51
  br i1 %52, label %53, label %67

53:                                               ; preds = %49
  %54 = load i8*, i8** %3, align 8
  %55 = load i32, i32* %5, align 4
  %56 = sext i32 %55 to i64
  %57 = getelementptr inbounds i8, i8* %54, i64 %56
  %58 = load i8, i8* %57, align 1
  %59 = load i8*, i8** %3, align 8
  %60 = load i32, i32* %5, align 4
  %61 = add nsw i32 %60, 3
  %62 = sext i32 %61 to i64
  %63 = getelementptr inbounds i8, i8* %59, i64 %62
  store i8 %58, i8* %63, align 1
  br label %64

64:                                               ; preds = %53
  %65 = load i32, i32* %5, align 4
  %66 = add nsw i32 %65, -1
  store i32 %66, i32* %5, align 4
  br label %49

67:                                               ; preds = %49
  %68 = load i8*, i8** %4, align 8
  %69 = getelementptr inbounds i8, i8* %68, i64 0
  %70 = load i8, i8* %69, align 1
  %71 = load i8*, i8** %3, align 8
  %72 = load i32, i32* %7, align 4
  %73 = add nsw i32 %72, 1
  %74 = sext i32 %73 to i64
  %75 = getelementptr inbounds i8, i8* %71, i64 %74
  store i8 %70, i8* %75, align 1
  %76 = load i8*, i8** %4, align 8
  %77 = getelementptr inbounds i8, i8* %76, i64 1
  %78 = load i8, i8* %77, align 1
  %79 = load i8*, i8** %3, align 8
  %80 = load i32, i32* %7, align 4
  %81 = add nsw i32 %80, 2
  %82 = sext i32 %81 to i64
  %83 = getelementptr inbounds i8, i8* %79, i64 %82
  store i8 %78, i8* %83, align 1
  %84 = load i8*, i8** %4, align 8
  %85 = getelementptr inbounds i8, i8* %84, i64 2
  %86 = load i8, i8* %85, align 1
  %87 = load i8*, i8** %3, align 8
  %88 = load i32, i32* %7, align 4
  %89 = add nsw i32 %88, 3
  %90 = sext i32 %89 to i64
  %91 = getelementptr inbounds i8, i8* %87, i64 %90
  store i8 %86, i8* %91, align 1
  ret void
}

; Function Attrs: noinline nounwind uwtable
define dso_local i32 @main() #0 {
  %1 = alloca i32, align 4
  %2 = alloca [15 x i8], align 1
  %3 = alloca [4 x i8], align 1
  store i32 0, i32* %1, align 4
  %4 = getelementptr inbounds [15 x i8], [15 x i8]* %2, i64 0, i64 0
  %5 = getelementptr inbounds [4 x i8], [4 x i8]* %3, i64 0, i64 0
  %6 = call i32 (i8*, ...) @__isoc99_scanf(i8* getelementptr inbounds ([6 x i8], [6 x i8]* @.str, i64 0, i64 0), i8* %4, i8* %5)
  br label %7

7:                                                ; preds = %10, %0
  %8 = call i32 @getchar()
  %9 = icmp ne i32 %8, -1
  br i1 %9, label %10, label %18

10:                                               ; preds = %7
  %11 = getelementptr inbounds [15 x i8], [15 x i8]* %2, i64 0, i64 0
  %12 = getelementptr inbounds [4 x i8], [4 x i8]* %3, i64 0, i64 0
  call void @function(i8* %11, i8* %12)
  %13 = getelementptr inbounds [15 x i8], [15 x i8]* %2, i64 0, i64 0
  %14 = call i32 (i8*, ...) @printf(i8* getelementptr inbounds ([4 x i8], [4 x i8]* @.str.1, i64 0, i64 0), i8* %13)
  %15 = getelementptr inbounds [15 x i8], [15 x i8]* %2, i64 0, i64 0
  %16 = getelementptr inbounds [4 x i8], [4 x i8]* %3, i64 0, i64 0
  %17 = call i32 (i8*, ...) @__isoc99_scanf(i8* getelementptr inbounds ([6 x i8], [6 x i8]* @.str, i64 0, i64 0), i8* %15, i8* %16)
  br label %7

18:                                               ; preds = %7
  ret i32 1
}